; Function Attrs: mustprogress nounwind uwtable
define dso_local void @_ZN5clang13ASTStmtReader25VisitOMPCriticalDirectiveEPNS_20OMPCriticalDirectiveE(ptr noundef nonnull readonly align 8 captures(none) dereferenceable(28) %0, ptr noundef captures(none) initializes((12, 20)) %1) local_unnamed_addr #0 align 2 {
  %3 = alloca %"struct.clang::DeclarationNameInfo", align 8
  tail call void @_ZN5clang13ASTStmtReader27VisitOMPExecutableDirectiveEPNS_22OMPExecutableDirectiveE(ptr noundef nonnull align 8 dereferenceable(28) %0, ptr noundef %1)
  %4 = load ptr, ptr %0, align 8
  call void @_ZN5clang15ASTRecordReader23readDeclarationNameInfoEv(ptr dead_on_unwind nonnull writable sret(%"struct.clang::DeclarationNameInfo") align 8 %3, ptr noundef nonnull align 8 dereferenceable(560) %4) #18
  %5 = getelementptr inbounds nuw i8, ptr %1, i64 32
  call void @llvm.memcpy.p0.p0.i64(ptr noundef nonnull align 8 dereferenceable(24) %5, ptr noundef nonnull align 8 dereferenceable(24) %3, i64 24, i1 false)
  ret void
}